
OpdrachtB2.elf:     file format elf32-avr

Sections:
Idx Name          Size      VMA       LMA       File off  Algn
  0 .data         00000000  00800100  00800100  000001f0  2**0
                  CONTENTS, ALLOC, LOAD, DATA
  1 .text         0000017c  00000000  00000000  00000074  2**1
                  CONTENTS, ALLOC, LOAD, READONLY, CODE
  2 .bss          00000002  00800100  00800100  000001f0  2**0
                  ALLOC
  3 .comment      00000030  00000000  00000000  000001f0  2**0
                  CONTENTS, READONLY
  4 .note.gnu.avr.deviceinfo 0000003c  00000000  00000000  00000220  2**2
                  CONTENTS, READONLY
  5 .debug_aranges 00000030  00000000  00000000  0000025c  2**0
                  CONTENTS, READONLY, DEBUGGING
  6 .debug_info   00000844  00000000  00000000  0000028c  2**0
                  CONTENTS, READONLY, DEBUGGING
  7 .debug_abbrev 00000797  00000000  00000000  00000ad0  2**0
                  CONTENTS, READONLY, DEBUGGING
  8 .debug_line   0000029b  00000000  00000000  00001267  2**0
                  CONTENTS, READONLY, DEBUGGING
  9 .debug_frame  00000094  00000000  00000000  00001504  2**2
                  CONTENTS, READONLY, DEBUGGING
 10 .debug_str    000003df  00000000  00000000  00001598  2**0
                  CONTENTS, READONLY, DEBUGGING
 11 .debug_loc    000000fa  00000000  00000000  00001977  2**0
                  CONTENTS, READONLY, DEBUGGING
 12 .debug_ranges 00000020  00000000  00000000  00001a71  2**0
                  CONTENTS, READONLY, DEBUGGING

Disassembly of section .text:

00000000 <__vectors>:
   0:	45 c0       	rjmp	.+138    	; 0x8c <__ctors_end>
   2:	00 00       	nop
   4:	54 c0       	rjmp	.+168    	; 0xae <__vector_1>
   6:	00 00       	nop
   8:	7d c0       	rjmp	.+250    	; 0x104 <__vector_2>
   a:	00 00       	nop
   c:	4f c0       	rjmp	.+158    	; 0xac <__bad_interrupt>
   e:	00 00       	nop
  10:	4d c0       	rjmp	.+154    	; 0xac <__bad_interrupt>
  12:	00 00       	nop
  14:	4b c0       	rjmp	.+150    	; 0xac <__bad_interrupt>
  16:	00 00       	nop
  18:	49 c0       	rjmp	.+146    	; 0xac <__bad_interrupt>
  1a:	00 00       	nop
  1c:	47 c0       	rjmp	.+142    	; 0xac <__bad_interrupt>
  1e:	00 00       	nop
  20:	45 c0       	rjmp	.+138    	; 0xac <__bad_interrupt>
  22:	00 00       	nop
  24:	43 c0       	rjmp	.+134    	; 0xac <__bad_interrupt>
  26:	00 00       	nop
  28:	41 c0       	rjmp	.+130    	; 0xac <__bad_interrupt>
  2a:	00 00       	nop
  2c:	3f c0       	rjmp	.+126    	; 0xac <__bad_interrupt>
  2e:	00 00       	nop
  30:	3d c0       	rjmp	.+122    	; 0xac <__bad_interrupt>
  32:	00 00       	nop
  34:	3b c0       	rjmp	.+118    	; 0xac <__bad_interrupt>
  36:	00 00       	nop
  38:	39 c0       	rjmp	.+114    	; 0xac <__bad_interrupt>
  3a:	00 00       	nop
  3c:	37 c0       	rjmp	.+110    	; 0xac <__bad_interrupt>
  3e:	00 00       	nop
  40:	35 c0       	rjmp	.+106    	; 0xac <__bad_interrupt>
  42:	00 00       	nop
  44:	33 c0       	rjmp	.+102    	; 0xac <__bad_interrupt>
  46:	00 00       	nop
  48:	31 c0       	rjmp	.+98     	; 0xac <__bad_interrupt>
  4a:	00 00       	nop
  4c:	2f c0       	rjmp	.+94     	; 0xac <__bad_interrupt>
  4e:	00 00       	nop
  50:	2d c0       	rjmp	.+90     	; 0xac <__bad_interrupt>
  52:	00 00       	nop
  54:	2b c0       	rjmp	.+86     	; 0xac <__bad_interrupt>
  56:	00 00       	nop
  58:	29 c0       	rjmp	.+82     	; 0xac <__bad_interrupt>
  5a:	00 00       	nop
  5c:	27 c0       	rjmp	.+78     	; 0xac <__bad_interrupt>
  5e:	00 00       	nop
  60:	25 c0       	rjmp	.+74     	; 0xac <__bad_interrupt>
  62:	00 00       	nop
  64:	23 c0       	rjmp	.+70     	; 0xac <__bad_interrupt>
  66:	00 00       	nop
  68:	21 c0       	rjmp	.+66     	; 0xac <__bad_interrupt>
  6a:	00 00       	nop
  6c:	1f c0       	rjmp	.+62     	; 0xac <__bad_interrupt>
  6e:	00 00       	nop
  70:	1d c0       	rjmp	.+58     	; 0xac <__bad_interrupt>
  72:	00 00       	nop
  74:	1b c0       	rjmp	.+54     	; 0xac <__bad_interrupt>
  76:	00 00       	nop
  78:	19 c0       	rjmp	.+50     	; 0xac <__bad_interrupt>
  7a:	00 00       	nop
  7c:	17 c0       	rjmp	.+46     	; 0xac <__bad_interrupt>
  7e:	00 00       	nop
  80:	15 c0       	rjmp	.+42     	; 0xac <__bad_interrupt>
  82:	00 00       	nop
  84:	13 c0       	rjmp	.+38     	; 0xac <__bad_interrupt>
  86:	00 00       	nop
  88:	11 c0       	rjmp	.+34     	; 0xac <__bad_interrupt>
	...

0000008c <__ctors_end>:
  8c:	11 24       	eor	r1, r1
  8e:	1f be       	out	0x3f, r1	; 63
  90:	cf ef       	ldi	r28, 0xFF	; 255
  92:	d0 e1       	ldi	r29, 0x10	; 16
  94:	de bf       	out	0x3e, r29	; 62
  96:	cd bf       	out	0x3d, r28	; 61

00000098 <__do_clear_bss>:
  98:	21 e0       	ldi	r18, 0x01	; 1
  9a:	a0 e0       	ldi	r26, 0x00	; 0
  9c:	b1 e0       	ldi	r27, 0x01	; 1
  9e:	01 c0       	rjmp	.+2      	; 0xa2 <.do_clear_bss_start>

000000a0 <.do_clear_bss_loop>:
  a0:	1d 92       	st	X+, r1

000000a2 <.do_clear_bss_start>:
  a2:	a2 30       	cpi	r26, 0x02	; 2
  a4:	b2 07       	cpc	r27, r18
  a6:	e1 f7       	brne	.-8      	; 0xa0 <.do_clear_bss_loop>
  a8:	5a d0       	rcall	.+180    	; 0x15e <main>
  aa:	66 c0       	rjmp	.+204    	; 0x178 <_exit>

000000ac <__bad_interrupt>:
  ac:	a9 cf       	rjmp	.-174    	; 0x0 <__vectors>

000000ae <__vector_1>:
#include <util/delay.h>
#include <avr/interrupt.h>

int i = 0;

ISR( INT0_vect ) {
  ae:	1f 92       	push	r1
  b0:	0f 92       	push	r0
  b2:	0f b6       	in	r0, 0x3f	; 63
  b4:	0f 92       	push	r0
  b6:	11 24       	eor	r1, r1
  b8:	2f 93       	push	r18
  ba:	3f 93       	push	r19
  bc:	4f 93       	push	r20
  be:	5f 93       	push	r21
  c0:	8f 93       	push	r24
  c2:	9f 93       	push	r25
	i--;
  c4:	80 91 00 01 	lds	r24, 0x0100	; 0x800100 <__DATA_REGION_ORIGIN__>
  c8:	90 91 01 01 	lds	r25, 0x0101	; 0x800101 <__DATA_REGION_ORIGIN__+0x1>
  cc:	01 97       	sbiw	r24, 0x01	; 1
	i = (i < 0 ? 7 : i);
  ce:	12 f4       	brpl	.+4      	; 0xd4 <__vector_1+0x26>
  d0:	87 e0       	ldi	r24, 0x07	; 7
  d2:	90 e0       	ldi	r25, 0x00	; 0
  d4:	90 93 01 01 	sts	0x0101, r25	; 0x800101 <__DATA_REGION_ORIGIN__+0x1>
  d8:	80 93 00 01 	sts	0x0100, r24	; 0x800100 <__DATA_REGION_ORIGIN__>
	PORTC = (1<<i);
  dc:	21 e0       	ldi	r18, 0x01	; 1
  de:	30 e0       	ldi	r19, 0x00	; 0
  e0:	a9 01       	movw	r20, r18
  e2:	02 c0       	rjmp	.+4      	; 0xe8 <__vector_1+0x3a>
  e4:	44 0f       	add	r20, r20
  e6:	55 1f       	adc	r21, r21
  e8:	8a 95       	dec	r24
  ea:	e2 f7       	brpl	.-8      	; 0xe4 <__vector_1+0x36>
  ec:	45 bb       	out	0x15, r20	; 21
}
  ee:	9f 91       	pop	r25
  f0:	8f 91       	pop	r24
  f2:	5f 91       	pop	r21
  f4:	4f 91       	pop	r20
  f6:	3f 91       	pop	r19
  f8:	2f 91       	pop	r18
  fa:	0f 90       	pop	r0
  fc:	0f be       	out	0x3f, r0	; 63
  fe:	0f 90       	pop	r0
 100:	1f 90       	pop	r1
 102:	18 95       	reti

00000104 <__vector_2>:


ISR( INT1_vect ) {
 104:	1f 92       	push	r1
 106:	0f 92       	push	r0
 108:	0f b6       	in	r0, 0x3f	; 63
 10a:	0f 92       	push	r0
 10c:	11 24       	eor	r1, r1
 10e:	2f 93       	push	r18
 110:	3f 93       	push	r19
 112:	4f 93       	push	r20
 114:	5f 93       	push	r21
 116:	8f 93       	push	r24
 118:	9f 93       	push	r25
	i++;
 11a:	80 91 00 01 	lds	r24, 0x0100	; 0x800100 <__DATA_REGION_ORIGIN__>
 11e:	90 91 01 01 	lds	r25, 0x0101	; 0x800101 <__DATA_REGION_ORIGIN__+0x1>
 122:	01 96       	adiw	r24, 0x01	; 1
	i = (i > 7 ? 0 : i);
 124:	88 30       	cpi	r24, 0x08	; 8
 126:	91 05       	cpc	r25, r1
 128:	14 f0       	brlt	.+4      	; 0x12e <__vector_2+0x2a>
 12a:	80 e0       	ldi	r24, 0x00	; 0
 12c:	90 e0       	ldi	r25, 0x00	; 0
 12e:	90 93 01 01 	sts	0x0101, r25	; 0x800101 <__DATA_REGION_ORIGIN__+0x1>
 132:	80 93 00 01 	sts	0x0100, r24	; 0x800100 <__DATA_REGION_ORIGIN__>
	PORTC = (1<<i);
 136:	21 e0       	ldi	r18, 0x01	; 1
 138:	30 e0       	ldi	r19, 0x00	; 0
 13a:	a9 01       	movw	r20, r18
 13c:	02 c0       	rjmp	.+4      	; 0x142 <__vector_2+0x3e>
 13e:	44 0f       	add	r20, r20
 140:	55 1f       	adc	r21, r21
 142:	8a 95       	dec	r24
 144:	e2 f7       	brpl	.-8      	; 0x13e <__vector_2+0x3a>
 146:	45 bb       	out	0x15, r20	; 21
}
 148:	9f 91       	pop	r25
 14a:	8f 91       	pop	r24
 14c:	5f 91       	pop	r21
 14e:	4f 91       	pop	r20
 150:	3f 91       	pop	r19
 152:	2f 91       	pop	r18
 154:	0f 90       	pop	r0
 156:	0f be       	out	0x3f, r0	; 63
 158:	0f 90       	pop	r0
 15a:	1f 90       	pop	r1
 15c:	18 95       	reti

0000015e <main>:


int main(void)
{
	DDRC = 0xFF; //Setting row to output
 15e:	8f ef       	ldi	r24, 0xFF	; 255
 160:	84 bb       	out	0x14, r24	; 20
	DDRD = 0x00;
 162:	11 ba       	out	0x11, r1	; 17
	
	EICRA |= 0x0B;			// INT1 falling edge, INT0 rising edge
 164:	ea e6       	ldi	r30, 0x6A	; 106
 166:	f0 e0       	ldi	r31, 0x00	; 0
 168:	80 81       	ld	r24, Z
 16a:	8b 60       	ori	r24, 0x0B	; 11
 16c:	80 83       	st	Z, r24
	EIMSK |= 0x03;			// Enable INT1 & INT0	
 16e:	89 b7       	in	r24, 0x39	; 57
 170:	83 60       	ori	r24, 0x03	; 3
 172:	89 bf       	out	0x39, r24	; 57

	sei();	
 174:	78 94       	sei
 176:	ff cf       	rjmp	.-2      	; 0x176 <main+0x18>

00000178 <_exit>:
 178:	f8 94       	cli

0000017a <__stop_program>:
 17a:	ff cf       	rjmp	.-2      	; 0x17a <__stop_program>
